target datalayout = "e-m:e-p270:32:32-p271:32:32-p272:64:64-i64:64-i128:128-f80:128-n8:16:32:64-S128"
target triple = "x86_64-pc-linux-gnu"

; Function Attrs: nounwind uwtable
define internal void @avg_h264_chroma_mc2_16_c(ptr noundef %0, ptr noundef %1, i64 noundef %2, i32 noundef %3, i32 noundef %4, i32 noundef %5) #1 {
  %7 = alloca ptr, align 8
  %8 = alloca ptr, align 8
  %9 = alloca i64, align 8
  %10 = alloca i32, align 4
  %11 = alloca i32, align 4
  %12 = alloca i32, align 4
  %13 = alloca ptr, align 8
  %14 = alloca ptr, align 8
  %15 = alloca i32, align 4
  %16 = alloca i32, align 4
  %17 = alloca i32, align 4
  %18 = alloca i32, align 4
  %19 = alloca i32, align 4
  %20 = alloca i32, align 4
  %21 = alloca i64, align 8
  store ptr %0, ptr %7, align 8, !tbaa !12
  store ptr %1, ptr %8, align 8, !tbaa !12
  store i64 %2, ptr %9, align 8, !tbaa !14
  store i32 %3, ptr %10, align 4, !tbaa !9
  store i32 %4, ptr %11, align 4, !tbaa !9
  store i32 %5, ptr %12, align 4, !tbaa !9
  call void @llvm.lifetime.start.p0(i64 8, ptr %13) #3
  %22 = load ptr, ptr %7, align 8, !tbaa !12
  store ptr %22, ptr %13, align 8, !tbaa !16
  call void @llvm.lifetime.start.p0(i64 8, ptr %14) #3
  %23 = load ptr, ptr %8, align 8, !tbaa !12
  store ptr %23, ptr %14, align 8, !tbaa !16
  call void @llvm.lifetime.start.p0(i64 4, ptr %15) #3
  %24 = load i32, ptr %11, align 4, !tbaa !9
  %25 = sub nsw i32 8, %24
  %26 = load i32, ptr %12, align 4, !tbaa !9
  %27 = sub nsw i32 8, %26
  %28 = mul nsw i32 %25, %27
  store i32 %28, ptr %15, align 4, !tbaa !9
  call void @llvm.lifetime.start.p0(i64 4, ptr %16) #3
  %29 = load i32, ptr %11, align 4, !tbaa !9
  %30 = load i32, ptr %12, align 4, !tbaa !9
  %31 = sub nsw i32 8, %30
  %32 = mul nsw i32 %29, %31
  store i32 %32, ptr %16, align 4, !tbaa !9
  call void @llvm.lifetime.start.p0(i64 4, ptr %17) #3
  %33 = load i32, ptr %11, align 4, !tbaa !9
  %34 = sub nsw i32 8, %33
  %35 = load i32, ptr %12, align 4, !tbaa !9
  %36 = mul nsw i32 %34, %35
  store i32 %36, ptr %17, align 4, !tbaa !9
  call void @llvm.lifetime.start.p0(i64 4, ptr %18) #3
  %37 = load i32, ptr %11, align 4, !tbaa !9
  %38 = load i32, ptr %12, align 4, !tbaa !9
  %39 = mul nsw i32 %37, %38
  store i32 %39, ptr %18, align 4, !tbaa !9
  call void @llvm.lifetime.start.p0(i64 4, ptr %19) #3
  %40 = load i64, ptr %9, align 8, !tbaa !14
  %41 = ashr i64 %40, 1
  store i64 %41, ptr %9, align 8, !tbaa !14
  %42 = load i32, ptr %18, align 4, !tbaa !9
  %43 = icmp ne i32 %42, 0
  br i1 %43, label %44, label %146

44:                                               ; preds = %6
  store i32 0, ptr %19, align 4, !tbaa !9
  br label %45

45:                                               ; preds = %142, %44
  %46 = load i32, ptr %19, align 4, !tbaa !9
  %47 = load i32, ptr %10, align 4, !tbaa !9
  %48 = icmp slt i32 %46, %47
  br i1 %48, label %49, label %145

49:                                               ; preds = %45
  %50 = load ptr, ptr %13, align 8, !tbaa !16
  %51 = getelementptr inbounds i16, ptr %50, i64 0
  %52 = load i16, ptr %51, align 2, !tbaa !18
  %53 = zext i16 %52 to i32
  %54 = load i32, ptr %15, align 4, !tbaa !9
  %55 = load ptr, ptr %14, align 8, !tbaa !16
  %56 = getelementptr inbounds i16, ptr %55, i64 0
  %57 = load i16, ptr %56, align 2, !tbaa !18
  %58 = zext i16 %57 to i32
  %59 = mul nsw i32 %54, %58
  %60 = load i32, ptr %16, align 4, !tbaa !9
  %61 = load ptr, ptr %14, align 8, !tbaa !16
  %62 = getelementptr inbounds i16, ptr %61, i64 1
  %63 = load i16, ptr %62, align 2, !tbaa !18
  %64 = zext i16 %63 to i32
  %65 = mul nsw i32 %60, %64
  %66 = add nsw i32 %59, %65
  %67 = load i32, ptr %17, align 4, !tbaa !9
  %68 = load ptr, ptr %14, align 8, !tbaa !16
  %69 = load i64, ptr %9, align 8, !tbaa !14
  %70 = add nsw i64 %69, 0
  %71 = getelementptr inbounds i16, ptr %68, i64 %70
  %72 = load i16, ptr %71, align 2, !tbaa !18
  %73 = zext i16 %72 to i32
  %74 = mul nsw i32 %67, %73
  %75 = add nsw i32 %66, %74
  %76 = load i32, ptr %18, align 4, !tbaa !9
  %77 = load ptr, ptr %14, align 8, !tbaa !16
  %78 = load i64, ptr %9, align 8, !tbaa !14
  %79 = add nsw i64 %78, 1
  %80 = getelementptr inbounds i16, ptr %77, i64 %79
  %81 = load i16, ptr %80, align 2, !tbaa !18
  %82 = zext i16 %81 to i32
  %83 = mul nsw i32 %76, %82
  %84 = add nsw i32 %75, %83
  %85 = add nsw i32 %84, 32
  %86 = ashr i32 %85, 6
  %87 = add nsw i32 %53, %86
  %88 = add nsw i32 %87, 1
  %89 = ashr i32 %88, 1
  %90 = trunc i32 %89 to i16
  %91 = load ptr, ptr %13, align 8, !tbaa !16
  %92 = getelementptr inbounds i16, ptr %91, i64 0
  store i16 %90, ptr %92, align 2, !tbaa !18
  %93 = load ptr, ptr %13, align 8, !tbaa !16
  %94 = getelementptr inbounds i16, ptr %93, i64 1
  %95 = load i16, ptr %94, align 2, !tbaa !18
  %96 = zext i16 %95 to i32
  %97 = load i32, ptr %15, align 4, !tbaa !9
  %98 = load ptr, ptr %14, align 8, !tbaa !16
  %99 = getelementptr inbounds i16, ptr %98, i64 1
  %100 = load i16, ptr %99, align 2, !tbaa !18
  %101 = zext i16 %100 to i32
  %102 = mul nsw i32 %97, %101
  %103 = load i32, ptr %16, align 4, !tbaa !9
  %104 = load ptr, ptr %14, align 8, !tbaa !16
  %105 = getelementptr inbounds i16, ptr %104, i64 2
  %106 = load i16, ptr %105, align 2, !tbaa !18
  %107 = zext i16 %106 to i32
  %108 = mul nsw i32 %103, %107
  %109 = add nsw i32 %102, %108
  %110 = load i32, ptr %17, align 4, !tbaa !9
  %111 = load ptr, ptr %14, align 8, !tbaa !16
  %112 = load i64, ptr %9, align 8, !tbaa !14
  %113 = add nsw i64 %112, 1
  %114 = getelementptr inbounds i16, ptr %111, i64 %113
  %115 = load i16, ptr %114, align 2, !tbaa !18
  %116 = zext i16 %115 to i32
  %117 = mul nsw i32 %110, %116
  %118 = add nsw i32 %109, %117
  %119 = load i32, ptr %18, align 4, !tbaa !9
  %120 = load ptr, ptr %14, align 8, !tbaa !16
  %121 = load i64, ptr %9, align 8, !tbaa !14
  %122 = add nsw i64 %121, 2
  %123 = getelementptr inbounds i16, ptr %120, i64 %122
  %124 = load i16, ptr %123, align 2, !tbaa !18
  %125 = zext i16 %124 to i32
  %126 = mul nsw i32 %119, %125
  %127 = add nsw i32 %118, %126
  %128 = add nsw i32 %127, 32
  %129 = ashr i32 %128, 6
  %130 = add nsw i32 %96, %129
  %131 = add nsw i32 %130, 1
  %132 = ashr i32 %131, 1
  %133 = trunc i32 %132 to i16
  %134 = load ptr, ptr %13, align 8, !tbaa !16
  %135 = getelementptr inbounds i16, ptr %134, i64 1
  store i16 %133, ptr %135, align 2, !tbaa !18
  %136 = load i64, ptr %9, align 8, !tbaa !14
  %137 = load ptr, ptr %13, align 8, !tbaa !16
  %138 = getelementptr inbounds i16, ptr %137, i64 %136
  store ptr %138, ptr %13, align 8, !tbaa !16
  %139 = load i64, ptr %9, align 8, !tbaa !14
  %140 = load ptr, ptr %14, align 8, !tbaa !16
  %141 = getelementptr inbounds i16, ptr %140, i64 %139
  store ptr %141, ptr %14, align 8, !tbaa !16
  br label %142

142:                                              ; preds = %49
  %143 = load i32, ptr %19, align 4, !tbaa !9
  %144 = add nsw i32 %143, 1
  store i32 %144, ptr %19, align 4, !tbaa !9
  br label %45, !llvm.loop !39

145:                                              ; preds = %45
  br label %284

146:                                              ; preds = %6
  %147 = load i32, ptr %16, align 4, !tbaa !9
  %148 = load i32, ptr %17, align 4, !tbaa !9
  %149 = add nsw i32 %147, %148
  %150 = icmp ne i32 %149, 0
  br i1 %150, label %151, label %231

151:                                              ; preds = %146
  call void @llvm.lifetime.start.p0(i64 4, ptr %20) #3
  %152 = load i32, ptr %16, align 4, !tbaa !9
  %153 = load i32, ptr %17, align 4, !tbaa !9
  %154 = add nsw i32 %152, %153
  store i32 %154, ptr %20, align 4, !tbaa !9
  call void @llvm.lifetime.start.p0(i64 8, ptr %21) #3
  %155 = load i32, ptr %17, align 4, !tbaa !9
  %156 = icmp ne i32 %155, 0
  br i1 %156, label %157, label %159

157:                                              ; preds = %151
  %158 = load i64, ptr %9, align 8, !tbaa !14
  br label %160

159:                                              ; preds = %151
  br label %160

160:                                              ; preds = %159, %157
  %161 = phi i64 [ %158, %157 ], [ 1, %159 ]
  store i64 %161, ptr %21, align 8, !tbaa !14
  store i32 0, ptr %19, align 4, !tbaa !9
  br label %162

162:                                              ; preds = %227, %160
  %163 = load i32, ptr %19, align 4, !tbaa !9
  %164 = load i32, ptr %10, align 4, !tbaa !9
  %165 = icmp slt i32 %163, %164
  br i1 %165, label %166, label %230

166:                                              ; preds = %162
  %167 = load ptr, ptr %13, align 8, !tbaa !16
  %168 = getelementptr inbounds i16, ptr %167, i64 0
  %169 = load i16, ptr %168, align 2, !tbaa !18
  %170 = zext i16 %169 to i32
  %171 = load i32, ptr %15, align 4, !tbaa !9
  %172 = load ptr, ptr %14, align 8, !tbaa !16
  %173 = getelementptr inbounds i16, ptr %172, i64 0
  %174 = load i16, ptr %173, align 2, !tbaa !18
  %175 = zext i16 %174 to i32
  %176 = mul nsw i32 %171, %175
  %177 = load i32, ptr %20, align 4, !tbaa !9
  %178 = load ptr, ptr %14, align 8, !tbaa !16
  %179 = load i64, ptr %21, align 8, !tbaa !14
  %180 = add nsw i64 %179, 0
  %181 = getelementptr inbounds i16, ptr %178, i64 %180
  %182 = load i16, ptr %181, align 2, !tbaa !18
  %183 = zext i16 %182 to i32
  %184 = mul nsw i32 %177, %183
  %185 = add nsw i32 %176, %184
  %186 = add nsw i32 %185, 32
  %187 = ashr i32 %186, 6
  %188 = add nsw i32 %170, %187
  %189 = add nsw i32 %188, 1
  %190 = ashr i32 %189, 1
  %191 = trunc i32 %190 to i16
  %192 = load ptr, ptr %13, align 8, !tbaa !16
  %193 = getelementptr inbounds i16, ptr %192, i64 0
  store i16 %191, ptr %193, align 2, !tbaa !18
  %194 = load ptr, ptr %13, align 8, !tbaa !16
  %195 = getelementptr inbounds i16, ptr %194, i64 1
  %196 = load i16, ptr %195, align 2, !tbaa !18
  %197 = zext i16 %196 to i32
  %198 = load i32, ptr %15, align 4, !tbaa !9
  %199 = load ptr, ptr %14, align 8, !tbaa !16
  %200 = getelementptr inbounds i16, ptr %199, i64 1
  %201 = load i16, ptr %200, align 2, !tbaa !18
  %202 = zext i16 %201 to i32
  %203 = mul nsw i32 %198, %202
  %204 = load i32, ptr %20, align 4, !tbaa !9
  %205 = load ptr, ptr %14, align 8, !tbaa !16
  %206 = load i64, ptr %21, align 8, !tbaa !14
  %207 = add nsw i64 %206, 1
  %208 = getelementptr inbounds i16, ptr %205, i64 %207
  %209 = load i16, ptr %208, align 2, !tbaa !18
  %210 = zext i16 %209 to i32
  %211 = mul nsw i32 %204, %210
  %212 = add nsw i32 %203, %211
  %213 = add nsw i32 %212, 32
  %214 = ashr i32 %213, 6
  %215 = add nsw i32 %197, %214
  %216 = add nsw i32 %215, 1
  %217 = ashr i32 %216, 1
  %218 = trunc i32 %217 to i16
  %219 = load ptr, ptr %13, align 8, !tbaa !16
  %220 = getelementptr inbounds i16, ptr %219, i64 1
  store i16 %218, ptr %220, align 2, !tbaa !18
  %221 = load i64, ptr %9, align 8, !tbaa !14
  %222 = load ptr, ptr %13, align 8, !tbaa !16
  %223 = getelementptr inbounds i16, ptr %222, i64 %221
  store ptr %223, ptr %13, align 8, !tbaa !16
  %224 = load i64, ptr %9, align 8, !tbaa !14
  %225 = load ptr, ptr %14, align 8, !tbaa !16
  %226 = getelementptr inbounds i16, ptr %225, i64 %224
  store ptr %226, ptr %14, align 8, !tbaa !16
  br label %227

227:                                              ; preds = %166
  %228 = load i32, ptr %19, align 4, !tbaa !9
  %229 = add nsw i32 %228, 1
  store i32 %229, ptr %19, align 4, !tbaa !9
  br label %162, !llvm.loop !40

230:                                              ; preds = %162
  call void @llvm.lifetime.end.p0(i64 8, ptr %21) #3
  call void @llvm.lifetime.end.p0(i64 4, ptr %20) #3
  br label %283

231:                                              ; preds = %146
  store i32 0, ptr %19, align 4, !tbaa !9
  br label %232

232:                                              ; preds = %279, %231
  %233 = load i32, ptr %19, align 4, !tbaa !9
  %234 = load i32, ptr %10, align 4, !tbaa !9
  %235 = icmp slt i32 %233, %234
  br i1 %235, label %236, label %282

236:                                              ; preds = %232
  %237 = load ptr, ptr %13, align 8, !tbaa !16
  %238 = getelementptr inbounds i16, ptr %237, i64 0
  %239 = load i16, ptr %238, align 2, !tbaa !18
  %240 = zext i16 %239 to i32
  %241 = load i32, ptr %15, align 4, !tbaa !9
  %242 = load ptr, ptr %14, align 8, !tbaa !16
  %243 = getelementptr inbounds i16, ptr %242, i64 0
  %244 = load i16, ptr %243, align 2, !tbaa !18
  %245 = zext i16 %244 to i32
  %246 = mul nsw i32 %241, %245
  %247 = add nsw i32 %246, 32
  %248 = ashr i32 %247, 6
  %249 = add nsw i32 %240, %248
  %250 = add nsw i32 %249, 1
  %251 = ashr i32 %250, 1
  %252 = trunc i32 %251 to i16
  %253 = load ptr, ptr %13, align 8, !tbaa !16
  %254 = getelementptr inbounds i16, ptr %253, i64 0
  store i16 %252, ptr %254, align 2, !tbaa !18
  %255 = load ptr, ptr %13, align 8, !tbaa !16
  %256 = getelementptr inbounds i16, ptr %255, i64 1
  %257 = load i16, ptr %256, align 2, !tbaa !18
  %258 = zext i16 %257 to i32
  %259 = load i32, ptr %15, align 4, !tbaa !9
  %260 = load ptr, ptr %14, align 8, !tbaa !16
  %261 = getelementptr inbounds i16, ptr %260, i64 1
  %262 = load i16, ptr %261, align 2, !tbaa !18
  %263 = zext i16 %262 to i32
  %264 = mul nsw i32 %259, %263
  %265 = add nsw i32 %264, 32
  %266 = ashr i32 %265, 6
  %267 = add nsw i32 %258, %266
  %268 = add nsw i32 %267, 1
  %269 = ashr i32 %268, 1
  %270 = trunc i32 %269 to i16
  %271 = load ptr, ptr %13, align 8, !tbaa !16
  %272 = getelementptr inbounds i16, ptr %271, i64 1
  store i16 %270, ptr %272, align 2, !tbaa !18
  %273 = load i64, ptr %9, align 8, !tbaa !14
  %274 = load ptr, ptr %13, align 8, !tbaa !16
  %275 = getelementptr inbounds i16, ptr %274, i64 %273
  store ptr %275, ptr %13, align 8, !tbaa !16
  %276 = load i64, ptr %9, align 8, !tbaa !14
  %277 = load ptr, ptr %14, align 8, !tbaa !16
  %278 = getelementptr inbounds i16, ptr %277, i64 %276
  store ptr %278, ptr %14, align 8, !tbaa !16
  br label %279

279:                                              ; preds = %236
  %280 = load i32, ptr %19, align 4, !tbaa !9
  %281 = add nsw i32 %280, 1
  store i32 %281, ptr %19, align 4, !tbaa !9
  br label %232, !llvm.loop !41

282:                                              ; preds = %232
  br label %283

283:                                              ; preds = %282, %230
  br label %284

284:                                              ; preds = %283, %145
  call void @llvm.lifetime.end.p0(i64 4, ptr %19) #3
  call void @llvm.lifetime.end.p0(i64 4, ptr %18) #3
  call void @llvm.lifetime.end.p0(i64 4, ptr %17) #3
  call void @llvm.lifetime.end.p0(i64 4, ptr %16) #3
  call void @llvm.lifetime.end.p0(i64 4, ptr %15) #3
  call void @llvm.lifetime.end.p0(i64 8, ptr %14) #3
  call void @llvm.lifetime.end.p0(i64 8, ptr %13) #3
  ret void
}