; Function Attrs: nofree norecurse nosync nounwind memory(argmem: readwrite) uwtable
define internal void @avg_h264_chroma_mc2_16_c(ptr noundef captures(none) %0, ptr noundef readonly captures(none) %1, i64 noundef %2, i32 noundef %3, i32 noundef %4, i32 noundef %5) #1 {
  %7 = sub nsw i32 8, %4
  %8 = sub nsw i32 8, %5
  %9 = mul nsw i32 %8, %7
  %10 = mul nsw i32 %8, %4
  %11 = mul nsw i32 %7, %5
  %12 = mul nsw i32 %5, %4
  %13 = ashr i64 %2, 1
  %.not = icmp eq i32 %12, 0
  br i1 %.not, label %69, label %.preheader95

.preheader95:                                     ; preds = %6
  %14 = icmp sgt i32 %3, 0
  br i1 %14, label %.lr.ph, label %.loopexit

.lr.ph:                                           ; preds = %.preheader95, %.lr.ph
  %.099 = phi ptr [ %67, %.lr.ph ], [ %0, %.preheader95 ]
  %.08498 = phi i32 [ %68, %.lr.ph ], [ 0, %.preheader95 ]
  %.08797 = phi ptr [ %24, %.lr.ph ], [ %1, %.preheader95 ]
  %15 = load i16, ptr %.099, align 2, !tbaa !8
  %16 = zext i16 %15 to i32
  %17 = load i16, ptr %.08797, align 2, !tbaa !8
  %18 = zext i16 %17 to i32
  %19 = mul nsw i32 %9, %18
  %20 = getelementptr inbounds nuw i8, ptr %.08797, i64 2
  %21 = load i16, ptr %20, align 2, !tbaa !8
  %22 = zext i16 %21 to i32
  %23 = mul nsw i32 %10, %22
  %24 = getelementptr inbounds i16, ptr %.08797, i64 %13
  %25 = load i16, ptr %24, align 2, !tbaa !8
  %26 = zext i16 %25 to i32
  %27 = mul nsw i32 %11, %26
  %28 = getelementptr i8, ptr %24, i64 2
  %29 = load i16, ptr %28, align 2, !tbaa !8
  %30 = zext i16 %29 to i32
  %31 = mul nsw i32 %12, %30
  %32 = add i32 %19, 32
  %33 = add i32 %32, %23
  %34 = add i32 %33, %27
  %35 = add i32 %34, %31
  %36 = lshr i32 %35, 6
  %37 = add nuw nsw i32 %16, 1
  %38 = add nuw nsw i32 %37, %36
  %39 = lshr i32 %38, 1
  %40 = trunc i32 %39 to i16
  store i16 %40, ptr %.099, align 2, !tbaa !8
  %41 = getelementptr inbounds nuw i8, ptr %.099, i64 2
  %42 = load i16, ptr %41, align 2, !tbaa !8
  %43 = zext i16 %42 to i32
  %44 = load i16, ptr %20, align 2, !tbaa !8
  %45 = zext i16 %44 to i32
  %46 = mul nsw i32 %9, %45
  %47 = getelementptr inbounds nuw i8, ptr %.08797, i64 4
  %48 = load i16, ptr %47, align 2, !tbaa !8
  %49 = zext i16 %48 to i32
  %50 = mul nsw i32 %10, %49
  %51 = load i16, ptr %28, align 2, !tbaa !8
  %52 = zext i16 %51 to i32
  %53 = mul nsw i32 %11, %52
  %54 = getelementptr i8, ptr %24, i64 4
  %55 = load i16, ptr %54, align 2, !tbaa !8
  %56 = zext i16 %55 to i32
  %57 = mul nsw i32 %12, %56
  %58 = add i32 %46, 32
  %59 = add i32 %58, %50
  %60 = add i32 %59, %53
  %61 = add i32 %60, %57
  %62 = lshr i32 %61, 6
  %63 = add nuw nsw i32 %43, 1
  %64 = add nuw nsw i32 %63, %62
  %65 = lshr i32 %64, 1
  %66 = trunc i32 %65 to i16
  store i16 %66, ptr %41, align 2, !tbaa !8
  %67 = getelementptr inbounds i16, ptr %.099, i64 %13
  %68 = add nuw nsw i32 %.08498, 1
  %exitcond.not = icmp eq i32 %68, %3
  br i1 %exitcond.not, label %.loopexit, label %.lr.ph, !llvm.loop !29

69:                                               ; preds = %6
  %70 = add nsw i32 %10, %11
  %.not92 = icmp eq i32 %70, 0
  br i1 %.not92, label %.preheader, label %72

.preheader:                                       ; preds = %69
  %71 = icmp sgt i32 %3, 0
  br i1 %71, label %.lr.ph107, label %.loopexit

72:                                               ; preds = %69
  %.not93 = icmp eq i32 %11, 0
  %73 = select i1 %.not93, i64 1, i64 %13
  %74 = icmp sgt i32 %3, 0
  br i1 %74, label %.lr.ph103, label %.loopexit

.lr.ph103:                                        ; preds = %72, %.lr.ph103
  %.1102 = phi ptr [ %109, %.lr.ph103 ], [ %0, %72 ]
  %.185101 = phi i32 [ %111, %.lr.ph103 ], [ 0, %72 ]
  %.188100 = phi ptr [ %110, %.lr.ph103 ], [ %1, %72 ]
  %75 = load i16, ptr %.1102, align 2, !tbaa !8
  %76 = zext i16 %75 to i32
  %77 = load i16, ptr %.188100, align 2, !tbaa !8
  %78 = zext i16 %77 to i32
  %79 = mul nsw i32 %9, %78
  %80 = getelementptr inbounds i16, ptr %.188100, i64 %73
  %81 = load i16, ptr %80, align 2, !tbaa !8
  %82 = zext i16 %81 to i32
  %83 = mul nsw i32 %70, %82
  %84 = add i32 %79, 32
  %85 = add i32 %84, %83
  %86 = lshr i32 %85, 6
  %87 = add nuw nsw i32 %76, 1
  %88 = add nuw nsw i32 %87, %86
  %89 = lshr i32 %88, 1
  %90 = trunc i32 %89 to i16
  store i16 %90, ptr %.1102, align 2, !tbaa !8
  %91 = getelementptr inbounds nuw i8, ptr %.1102, i64 2
  %92 = load i16, ptr %91, align 2, !tbaa !8
  %93 = zext i16 %92 to i32
  %94 = getelementptr inbounds nuw i8, ptr %.188100, i64 2
  %95 = load i16, ptr %94, align 2, !tbaa !8
  %96 = zext i16 %95 to i32
  %97 = mul nsw i32 %9, %96
  %98 = getelementptr i8, ptr %80, i64 2
  %99 = load i16, ptr %98, align 2, !tbaa !8
  %100 = zext i16 %99 to i32
  %101 = mul nsw i32 %70, %100
  %102 = add i32 %97, 32
  %103 = add i32 %102, %101
  %104 = lshr i32 %103, 6
  %105 = add nuw nsw i32 %93, 1
  %106 = add nuw nsw i32 %105, %104
  %107 = lshr i32 %106, 1
  %108 = trunc i32 %107 to i16
  store i16 %108, ptr %91, align 2, !tbaa !8
  %109 = getelementptr inbounds i16, ptr %.1102, i64 %13
  %110 = getelementptr inbounds i16, ptr %.188100, i64 %13
  %111 = add nuw nsw i32 %.185101, 1
  %exitcond110.not = icmp eq i32 %111, %3
  br i1 %exitcond110.not, label %.loopexit, label %.lr.ph103, !llvm.loop !30

.lr.ph107:                                        ; preds = %.preheader, %.lr.ph107
  %.2106 = phi ptr [ %136, %.lr.ph107 ], [ %0, %.preheader ]
  %.286105 = phi i32 [ %138, %.lr.ph107 ], [ 0, %.preheader ]
  %.289104 = phi ptr [ %137, %.lr.ph107 ], [ %1, %.preheader ]
  %112 = load i16, ptr %.2106, align 2, !tbaa !8
  %113 = zext i16 %112 to i32
  %114 = load i16, ptr %.289104, align 2, !tbaa !8
  %115 = zext i16 %114 to i32
  %116 = mul nsw i32 %9, %115
  %117 = add nsw i32 %116, 32
  %118 = lshr i32 %117, 6
  %119 = add nuw nsw i32 %113, 1
  %120 = add nuw nsw i32 %119, %118
  %121 = lshr i32 %120, 1
  %122 = trunc i32 %121 to i16
  store i16 %122, ptr %.2106, align 2, !tbaa !8
  %123 = getelementptr inbounds nuw i8, ptr %.2106, i64 2
  %124 = load i16, ptr %123, align 2, !tbaa !8
  %125 = zext i16 %124 to i32
  %126 = getelementptr inbounds nuw i8, ptr %.289104, i64 2
  %127 = load i16, ptr %126, align 2, !tbaa !8
  %128 = zext i16 %127 to i32
  %129 = mul nsw i32 %9, %128
  %130 = add nsw i32 %129, 32
  %131 = lshr i32 %130, 6
  %132 = add nuw nsw i32 %125, 1
  %133 = add nuw nsw i32 %132, %131
  %134 = lshr i32 %133, 1
  %135 = trunc i32 %134 to i16
  store i16 %135, ptr %123, align 2, !tbaa !8
  %136 = getelementptr inbounds i16, ptr %.2106, i64 %13
  %137 = getelementptr inbounds i16, ptr %.289104, i64 %13
  %138 = add nuw nsw i32 %.286105, 1
  %exitcond111.not = icmp eq i32 %138, %3
  br i1 %exitcond111.not, label %.loopexit, label %.lr.ph107, !llvm.loop !31

.loopexit:                                        ; preds = %.lr.ph, %.lr.ph103, %.lr.ph107, %.preheader95, %72, %.preheader
  ret void
}